; Function Attrs: mustprogress nounwind uwtable
define dso_local void @_ZNK4llvm6HwMode4dumpEv(ptr noundef nonnull align 8 dereferenceable(80) %0) local_unnamed_addr #0 align 2 {
  %2 = tail call noundef nonnull align 8 dereferenceable(48) ptr @_ZN4llvm4dbgsEv() #17
  %.sroa.0.0.copyload = load ptr, ptr %0, align 8
  %.sroa.2.0..sroa_idx = getelementptr inbounds nuw i8, ptr %0, i64 8
  %.sroa.2.0.copyload = load i64, ptr %.sroa.2.0..sroa_idx, align 8
  %3 = getelementptr inbounds nuw i8, ptr %2, i64 24
  %4 = load ptr, ptr %3, align 8
  %5 = getelementptr inbounds nuw i8, ptr %2, i64 32
  %6 = load ptr, ptr %5, align 8
  %7 = ptrtoint ptr %4 to i64
  %8 = ptrtoint ptr %6 to i64
  %9 = sub i64 %7, %8
  %10 = icmp ugt i64 %.sroa.2.0.copyload, %9
  br i1 %10, label %11, label %13

11:                                               ; preds = %1
  %12 = tail call noundef nonnull align 8 dereferenceable(48) ptr @_ZN4llvm11raw_ostream5writeEPKcm(ptr noundef nonnull align 8 dereferenceable(48) %2, ptr noundef %.sroa.0.0.copyload, i64 noundef %.sroa.2.0.copyload) #17
  %.phi.trans.insert = getelementptr inbounds nuw i8, ptr %12, i64 32
  %.pre = load ptr, ptr %.phi.trans.insert, align 8
  br label %_ZN4llvm11raw_ostreamlsENS_9StringRefE.exit

13:                                               ; preds = %1
  %.not.i = icmp eq i64 %.sroa.2.0.copyload, 0
  br i1 %.not.i, label %_ZN4llvm11raw_ostreamlsENS_9StringRefE.exit, label %14

14:                                               ; preds = %13
  tail call void @llvm.memcpy.p0.p0.i64(ptr align 1 %6, ptr align 1 %.sroa.0.0.copyload, i64 %.sroa.2.0.copyload, i1 false)
  %15 = load ptr, ptr %5, align 8
  %16 = getelementptr inbounds i8, ptr %15, i64 %.sroa.2.0.copyload
  store ptr %16, ptr %5, align 8
  br label %_ZN4llvm11raw_ostreamlsENS_9StringRefE.exit

_ZN4llvm11raw_ostreamlsENS_9StringRefE.exit:      ; preds = %11, %13, %14
  %17 = phi ptr [ %.pre, %11 ], [ %16, %14 ], [ %6, %13 ]
  %.0.i = phi ptr [ %12, %11 ], [ %2, %14 ], [ %2, %13 ]
  %18 = getelementptr inbounds nuw i8, ptr %.0.i, i64 24
  %19 = load ptr, ptr %18, align 8
  %20 = ptrtoint ptr %19 to i64
  %21 = ptrtoint ptr %17 to i64
  %22 = sub i64 %20, %21
  %23 = icmp ult i64 %22, 2
  br i1 %23, label %24, label %26

24:                                               ; preds = %_ZN4llvm11raw_ostreamlsENS_9StringRefE.exit
  %25 = tail call noundef nonnull align 8 dereferenceable(48) ptr @_ZN4llvm11raw_ostream5writeEPKcm(ptr noundef nonnull align 8 dereferenceable(48) %.0.i, ptr noundef nonnull @.str.5, i64 noundef 2) #17
  br label %_ZN4llvm11raw_ostreamlsEPKc.exit

26:                                               ; preds = %_ZN4llvm11raw_ostreamlsENS_9StringRefE.exit
  %27 = getelementptr inbounds nuw i8, ptr %.0.i, i64 32
  store i16 8250, ptr %17, align 1
  %28 = load ptr, ptr %27, align 8
  %29 = getelementptr inbounds nuw i8, ptr %28, i64 2
  store ptr %29, ptr %27, align 8
  br label %_ZN4llvm11raw_ostreamlsEPKc.exit

_ZN4llvm11raw_ostreamlsEPKc.exit:                 ; preds = %24, %26
  %.0.i.i = phi ptr [ %25, %24 ], [ %.0.i, %26 ]
  %30 = getelementptr inbounds nuw i8, ptr %0, i64 16
  %31 = tail call noundef ptr @_ZNKSt7__cxx1112basic_stringIcSt11char_traitsIcESaIcEE4dataEv(ptr noundef nonnull align 8 dereferenceable(32) %30) #17
  %32 = tail call noundef i64 @_ZNKSt7__cxx1112basic_stringIcSt11char_traitsIcESaIcEE6lengthEv(ptr noundef nonnull align 8 dereferenceable(32) %30) #17
  %33 = tail call noundef nonnull align 8 dereferenceable(48) ptr @_ZN4llvm11raw_ostream5writeEPKcm(ptr noundef nonnull align 8 dereferenceable(48) %.0.i.i, ptr noundef %31, i64 noundef %32) #17
  %34 = getelementptr inbounds nuw i8, ptr %33, i64 32
  %35 = load ptr, ptr %34, align 8
  %36 = getelementptr inbounds nuw i8, ptr %33, i64 24
  %37 = load ptr, ptr %36, align 8
  %.not.i1 = icmp ult ptr %35, %37
  br i1 %.not.i1, label %40, label %38

38:                                               ; preds = %_ZN4llvm11raw_ostreamlsEPKc.exit
  %39 = tail call noundef nonnull align 8 dereferenceable(48) ptr @_ZN4llvm11raw_ostream5writeEh(ptr noundef nonnull align 8 dereferenceable(48) %33, i8 noundef zeroext 10) #17
  br label %_ZN4llvm11raw_ostreamlsEc.exit

40:                                               ; preds = %_ZN4llvm11raw_ostreamlsEPKc.exit
  %41 = getelementptr inbounds nuw i8, ptr %35, i64 1
  store ptr %41, ptr %34, align 8
  store i8 10, ptr %35, align 1
  br label %_ZN4llvm11raw_ostreamlsEc.exit

_ZN4llvm11raw_ostreamlsEc.exit:                   ; preds = %38, %40
  ret void
}